; Function Attrs: mustprogress nounwind
define internal noundef ptr @_ZN3tbb6detail2d113function_taskIZN4mold3elfL15new_object_fileINS4_3SH4EEEPNS4_10ObjectFileIT_EERNS4_7ContextIS8_EEPNS3_10MappedFileISC_EENSt7__cxx1112basic_stringIcSt11char_traitsIcESaIcEEEEUlvE_E6cancelERNS1_14execution_dataE(ptr noundef nonnull align 64 dereferenceable(96) %this, ptr noundef nonnull align 8 dereferenceable(12) %ed) unnamed_addr #4 align 2 {
entry:
  %m_wait_ctx.i = getelementptr inbounds i8, ptr %this, i64 80
  %0 = load ptr, ptr %m_wait_ctx.i, align 16
  %m_allocator.i = getelementptr inbounds i8, ptr %this, i64 88
  %1 = load i64, ptr %m_allocator.i, align 8
  %vtable.i = load ptr, ptr %this, align 64
  %2 = load ptr, ptr %vtable.i, align 8
  tail call void %2(ptr noundef nonnull align 64 dereferenceable(96) %this) #17
  %m_ref_count.i.i.i = getelementptr inbounds i8, ptr %0, i64 8
  %3 = atomicrmw add ptr %m_ref_count.i.i.i, i64 -1 seq_cst, align 8
  %tobool.not.i.i.i = icmp eq i64 %3, 1
  br i1 %tobool.not.i.i.i, label %if.then.i.i.i, label %_ZN3tbb6detail2d113function_taskIZN4mold3elfL15new_object_fileINS4_3SH4EEEPNS4_10ObjectFileIT_EERNS4_7ContextIS8_EEPNS3_10MappedFileISC_EENSt7__cxx1112basic_stringIcSt11char_traitsIcESaIcEEEEUlvE_E8finalizeERKNS1_14execution_dataE.exit

if.then.i.i.i:                                    ; preds = %entry
  %4 = ptrtoint ptr %0 to i64
  tail call void @_ZN3tbb6detail2r114notify_waitersEm(i64 noundef %4) #17
  br label %_ZN3tbb6detail2d113function_taskIZN4mold3elfL15new_object_fileINS4_3SH4EEEPNS4_10ObjectFileIT_EERNS4_7ContextIS8_EEPNS3_10MappedFileISC_EENSt7__cxx1112basic_stringIcSt11char_traitsIcESaIcEEEEUlvE_E8finalizeERKNS1_14execution_dataE.exit

_ZN3tbb6detail2d113function_taskIZN4mold3elfL15new_object_fileINS4_3SH4EEEPNS4_10ObjectFileIT_EERNS4_7ContextIS8_EEPNS3_10MappedFileISC_EENSt7__cxx1112basic_stringIcSt11char_traitsIcESaIcEEEEUlvE_E8finalizeERKNS1_14execution_dataE.exit: ; preds = %entry, %if.then.i.i.i
  %5 = inttoptr i64 %1 to ptr
  tail call void @_ZN3tbb6detail2r110deallocateERNS0_2d117small_object_poolEPvmRKNS2_14execution_dataE(ptr noundef nonnull align 1 dereferenceable(1) %5, ptr noundef nonnull %this, i64 noundef 128, ptr noundef nonnull align 8 dereferenceable(12) %ed) #17
  ret ptr null
}